target datalayout = "e-m:e-p270:32:32-p271:32:32-p272:64:64-i64:64-i128:128-f80:128-n8:16:32:64-S128"
target triple = "x86_64-pc-linux-gnu"

@.str = private unnamed_addr constant [34 x i8] c"../openssl/crypto/asn1/asn_mime.c\00", align 1
@.str.6 = private unnamed_addr constant [3 x i8] c"\0D\0A\00", align 1
@__func__.SMIME_crlf_copy = private unnamed_addr constant [16 x i8] c"SMIME_crlf_copy\00", align 1
@.str.43 = private unnamed_addr constant [29 x i8] c"Content-Type: text/plain\0D\0A\0D\0A\00", align 1

; Function Attrs: nounwind uwtable
define internal i32 @strip_eol(ptr noundef %0, ptr noundef %1, i32 noundef %2) #0 {
  %4 = alloca i32, align 4
  %5 = alloca ptr, align 8
  %6 = alloca ptr, align 8
  %7 = alloca i32, align 4
  %8 = alloca i32, align 4
  %9 = alloca ptr, align 8
  %10 = alloca i8, align 1
  %11 = alloca i32, align 4
  %12 = alloca i32, align 4
  store ptr %0, ptr %5, align 8, !tbaa !20
  store ptr %1, ptr %6, align 8, !tbaa !79
  store i32 %2, ptr %7, align 4, !tbaa !10
  call void @llvm.lifetime.start.p0(i64 4, ptr %8) #5
  %13 = load ptr, ptr %6, align 8, !tbaa !79
  %14 = load i32, ptr %13, align 4, !tbaa !10
  store i32 %14, ptr %8, align 4, !tbaa !10
  call void @llvm.lifetime.start.p0(i64 8, ptr %9) #5
  call void @llvm.lifetime.start.p0(i64 1, ptr %10) #5
  call void @llvm.lifetime.start.p0(i64 4, ptr %11) #5
  store i32 0, ptr %11, align 4, !tbaa !10
  %15 = load i32, ptr %7, align 4, !tbaa !10
  %16 = and i32 %15, 128
  %17 = icmp ne i32 %16, 0
  br i1 %17, label %18, label %56

18:                                               ; preds = %3
  %19 = load i32, ptr %8, align 4, !tbaa !10
  %20 = icmp sle i32 %19, 0
  br i1 %20, label %30, label %21

21:                                               ; preds = %18
  %22 = load ptr, ptr %5, align 8, !tbaa !20
  %23 = load i32, ptr %8, align 4, !tbaa !10
  %24 = sub nsw i32 %23, 1
  %25 = sext i32 %24 to i64
  %26 = getelementptr inbounds i8, ptr %22, i64 %25
  %27 = load i8, ptr %26, align 1, !tbaa !17
  %28 = sext i8 %27 to i32
  %29 = icmp ne i32 %28, 10
  br i1 %29, label %30, label %31

30:                                               ; preds = %21, %18
  store i32 0, ptr %4, align 4
  store i32 1, ptr %12, align 4
  br label %101

31:                                               ; preds = %21
  %32 = load i32, ptr %7, align 4, !tbaa !10
  %33 = and i32 %32, 2048
  %34 = icmp ne i32 %33, 0
  br i1 %34, label %35, label %51

35:                                               ; preds = %31
  %36 = load i32, ptr %8, align 4, !tbaa !10
  %37 = icmp sle i32 %36, 1
  br i1 %37, label %47, label %38

38:                                               ; preds = %35
  %39 = load ptr, ptr %5, align 8, !tbaa !20
  %40 = load i32, ptr %8, align 4, !tbaa !10
  %41 = sub nsw i32 %40, 2
  %42 = sext i32 %41 to i64
  %43 = getelementptr inbounds i8, ptr %39, i64 %42
  %44 = load i8, ptr %43, align 1, !tbaa !17
  %45 = sext i8 %44 to i32
  %46 = icmp ne i32 %45, 13
  br i1 %46, label %47, label %48

47:                                               ; preds = %38, %35
  store i32 0, ptr %4, align 4
  store i32 1, ptr %12, align 4
  br label %101

48:                                               ; preds = %38
  %49 = load i32, ptr %8, align 4, !tbaa !10
  %50 = add nsw i32 %49, -1
  store i32 %50, ptr %8, align 4, !tbaa !10
  br label %51

51:                                               ; preds = %48, %31
  %52 = load i32, ptr %8, align 4, !tbaa !10
  %53 = add nsw i32 %52, -1
  store i32 %53, ptr %8, align 4, !tbaa !10
  %54 = load i32, ptr %8, align 4, !tbaa !10
  %55 = load ptr, ptr %6, align 8, !tbaa !79
  store i32 %54, ptr %55, align 4, !tbaa !10
  store i32 1, ptr %4, align 4
  store i32 1, ptr %12, align 4
  br label %101

56:                                               ; preds = %3
  %57 = load ptr, ptr %5, align 8, !tbaa !20
  %58 = load i32, ptr %8, align 4, !tbaa !10
  %59 = sext i32 %58 to i64
  %60 = getelementptr inbounds i8, ptr %57, i64 %59
  %61 = getelementptr inbounds i8, ptr %60, i64 -1
  store ptr %61, ptr %9, align 8, !tbaa !20
  br label %62

62:                                               ; preds = %92, %56
  %63 = load i32, ptr %8, align 4, !tbaa !10
  %64 = icmp sgt i32 %63, 0
  br i1 %64, label %65, label %97

65:                                               ; preds = %62
  %66 = load ptr, ptr %9, align 8, !tbaa !20
  %67 = load i8, ptr %66, align 1, !tbaa !17
  store i8 %67, ptr %10, align 1, !tbaa !17
  %68 = load i8, ptr %10, align 1, !tbaa !17
  %69 = sext i8 %68 to i32
  %70 = icmp eq i32 %69, 10
  br i1 %70, label %71, label %72

71:                                               ; preds = %65
  store i32 1, ptr %11, align 4, !tbaa !10
  br label %91

72:                                               ; preds = %65
  %73 = load i32, ptr %11, align 4, !tbaa !10
  %74 = icmp ne i32 %73, 0
  br i1 %74, label %75, label %84

75:                                               ; preds = %72
  %76 = load i32, ptr %7, align 4, !tbaa !10
  %77 = and i32 %76, 524288
  %78 = icmp ne i32 %77, 0
  br i1 %78, label %79, label %84

79:                                               ; preds = %75
  %80 = load i8, ptr %10, align 1, !tbaa !17
  %81 = sext i8 %80 to i32
  %82 = icmp eq i32 %81, 32
  br i1 %82, label %83, label %84

83:                                               ; preds = %79
  br label %92

84:                                               ; preds = %79, %75, %72
  %85 = load i8, ptr %10, align 1, !tbaa !17
  %86 = sext i8 %85 to i32
  %87 = icmp ne i32 %86, 13
  br i1 %87, label %88, label %89

88:                                               ; preds = %84
  br label %97

89:                                               ; preds = %84
  br label %90

90:                                               ; preds = %89
  br label %91

91:                                               ; preds = %90, %71
  br label %92

92:                                               ; preds = %91, %83
  %93 = load i32, ptr %8, align 4, !tbaa !10
  %94 = add nsw i32 %93, -1
  store i32 %94, ptr %8, align 4, !tbaa !10
  %95 = load ptr, ptr %9, align 8, !tbaa !20
  %96 = getelementptr inbounds i8, ptr %95, i32 -1
  store ptr %96, ptr %9, align 8, !tbaa !20
  br label %62, !llvm.loop !81

97:                                               ; preds = %88, %62
  %98 = load i32, ptr %8, align 4, !tbaa !10
  %99 = load ptr, ptr %6, align 8, !tbaa !79
  store i32 %98, ptr %99, align 4, !tbaa !10
  %100 = load i32, ptr %11, align 4, !tbaa !10
  store i32 %100, ptr %4, align 4
  store i32 1, ptr %12, align 4
  br label %101

101:                                              ; preds = %97, %51, %47, %30
  call void @llvm.lifetime.end.p0(i64 4, ptr %11) #5
  call void @llvm.lifetime.end.p0(i64 1, ptr %10) #5
  call void @llvm.lifetime.end.p0(i64 8, ptr %9) #5
  call void @llvm.lifetime.end.p0(i64 4, ptr %8) #5
  %102 = load i32, ptr %4, align 4
  ret i32 %102
}

; Function Attrs: nounwind uwtable
define i32 @SMIME_crlf_copy(ptr noundef %0, ptr noundef %1, i32 noundef %2) #0 {
  %4 = alloca i32, align 4
  %5 = alloca ptr, align 8
  %6 = alloca ptr, align 8
  %7 = alloca i32, align 4
  %8 = alloca ptr, align 8
  %9 = alloca i8, align 1
  %10 = alloca i32, align 4
  %11 = alloca [1024 x i8], align 16
  %12 = alloca i32, align 4
  %13 = alloca i32, align 4
  %14 = alloca i32, align 4
  %15 = alloca i32, align 4
  store ptr %0, ptr %5, align 8, !tbaa !3
  store ptr %1, ptr %6, align 8, !tbaa !3
  store i32 %2, ptr %7, align 4, !tbaa !10
  call void @llvm.lifetime.start.p0(i64 8, ptr %8) #5
  call void @llvm.lifetime.start.p0(i64 1, ptr %9) #5
  call void @llvm.lifetime.start.p0(i64 4, ptr %10) #5
  call void @llvm.lifetime.start.p0(i64 1024, ptr %11) #5
  call void @llvm.lifetime.start.p0(i64 4, ptr %12) #5
  %16 = load ptr, ptr %5, align 8, !tbaa !3
  %17 = icmp eq ptr %16, null
  br i1 %17, label %21, label %18

18:                                               ; preds = %3
  %19 = load ptr, ptr %6, align 8, !tbaa !3
  %20 = icmp eq ptr %19, null
  br i1 %20, label %21, label %22

21:                                               ; preds = %18, %3
  call void @ERR_new()
  call void @ERR_set_debug(ptr noundef @.str, i32 noundef 523, ptr noundef @__func__.SMIME_crlf_copy)
  call void (i32, i32, ptr, ...) @ERR_set_error(i32 noundef 13, i32 noundef 786690, ptr noundef null)
  store i32 0, ptr %4, align 4
  store i32 1, ptr %13, align 4
  br label %123

22:                                               ; preds = %18
  %23 = call ptr @BIO_f_buffer()
  %24 = call ptr @BIO_new(ptr noundef %23)
  store ptr %24, ptr %8, align 8, !tbaa !3
  %25 = load ptr, ptr %8, align 8, !tbaa !3
  %26 = icmp eq ptr %25, null
  br i1 %26, label %27, label %28

27:                                               ; preds = %22
  call void @ERR_new()
  call void @ERR_set_debug(ptr noundef @.str, i32 noundef 533, ptr noundef @__func__.SMIME_crlf_copy)
  call void (i32, i32, ptr, ...) @ERR_set_error(i32 noundef 13, i32 noundef 524320, ptr noundef null)
  store i32 0, ptr %4, align 4
  store i32 1, ptr %13, align 4
  br label %123

28:                                               ; preds = %22
  %29 = load ptr, ptr %8, align 8, !tbaa !3
  %30 = load ptr, ptr %6, align 8, !tbaa !3
  %31 = call ptr @BIO_push(ptr noundef %29, ptr noundef %30)
  store ptr %31, ptr %6, align 8, !tbaa !3
  %32 = load i32, ptr %7, align 4, !tbaa !10
  %33 = and i32 %32, 128
  %34 = icmp ne i32 %33, 0
  br i1 %34, label %35, label %47

35:                                               ; preds = %28
  br label %36

36:                                               ; preds = %41, %35
  %37 = load ptr, ptr %5, align 8, !tbaa !3
  %38 = getelementptr inbounds [1024 x i8], ptr %11, i64 0, i64 0
  %39 = call i32 @BIO_read(ptr noundef %37, ptr noundef %38, i32 noundef 1024)
  store i32 %39, ptr %10, align 4, !tbaa !10
  %40 = icmp sgt i32 %39, 0
  br i1 %40, label %41, label %46

41:                                               ; preds = %36
  %42 = load ptr, ptr %6, align 8, !tbaa !3
  %43 = getelementptr inbounds [1024 x i8], ptr %11, i64 0, i64 0
  %44 = load i32, ptr %10, align 4, !tbaa !10
  %45 = call i32 @BIO_write(ptr noundef %42, ptr noundef %43, i32 noundef %44)
  br label %36, !llvm.loop !16

46:                                               ; preds = %36
  br label %111

47:                                               ; preds = %28
  call void @llvm.lifetime.start.p0(i64 4, ptr %14) #5
  store i32 0, ptr %14, align 4, !tbaa !10
  %48 = load i32, ptr %7, align 4, !tbaa !10
  %49 = and i32 %48, 1
  %50 = icmp ne i32 %49, 0
  br i1 %50, label %51, label %54

51:                                               ; preds = %47
  %52 = load ptr, ptr %6, align 8, !tbaa !3
  %53 = call i32 (ptr, ptr, ...) @BIO_printf(ptr noundef %52, ptr noundef @.str.43)
  br label %54

54:                                               ; preds = %51, %47
  br label %55

55:                                               ; preds = %109, %54
  %56 = load ptr, ptr %5, align 8, !tbaa !3
  %57 = getelementptr inbounds [1024 x i8], ptr %11, i64 0, i64 0
  %58 = call i32 @BIO_gets(ptr noundef %56, ptr noundef %57, i32 noundef 1024)
  store i32 %58, ptr %10, align 4, !tbaa !10
  %59 = icmp sgt i32 %58, 0
  br i1 %59, label %60, label %110

60:                                               ; preds = %55
  %61 = getelementptr inbounds [1024 x i8], ptr %11, i64 0, i64 0
  %62 = load i32, ptr %7, align 4, !tbaa !10
  %63 = call i32 @strip_eol(ptr noundef %61, ptr noundef %10, i32 noundef %62)
  %64 = trunc i32 %63 to i8
  store i8 %64, ptr %9, align 1, !tbaa !17
  %65 = load i32, ptr %10, align 4, !tbaa !10
  %66 = icmp sgt i32 %65, 0
  br i1 %66, label %67, label %94

67:                                               ; preds = %60
  %68 = load i32, ptr %7, align 4, !tbaa !10
  %69 = and i32 %68, 524288
  %70 = icmp ne i32 %69, 0
  br i1 %70, label %71, label %83

71:                                               ; preds = %67
  call void @llvm.lifetime.start.p0(i64 4, ptr %15) #5
  store i32 0, ptr %15, align 4, !tbaa !10
  br label %72

72:                                               ; preds = %79, %71
  %73 = load i32, ptr %15, align 4, !tbaa !10
  %74 = load i32, ptr %14, align 4, !tbaa !10
  %75 = icmp slt i32 %73, %74
  br i1 %75, label %76, label %82

76:                                               ; preds = %72
  %77 = load ptr, ptr %6, align 8, !tbaa !3
  %78 = call i32 @BIO_write(ptr noundef %77, ptr noundef @.str.6, i32 noundef 2)
  br label %79

79:                                               ; preds = %76
  %80 = load i32, ptr %15, align 4, !tbaa !10
  %81 = add nsw i32 %80, 1
  store i32 %81, ptr %15, align 4, !tbaa !10
  br label %72, !llvm.loop !18

82:                                               ; preds = %72
  store i32 0, ptr %14, align 4, !tbaa !10
  call void @llvm.lifetime.end.p0(i64 4, ptr %15) #5
  br label %83

83:                                               ; preds = %82, %67
  %84 = load ptr, ptr %6, align 8, !tbaa !3
  %85 = getelementptr inbounds [1024 x i8], ptr %11, i64 0, i64 0
  %86 = load i32, ptr %10, align 4, !tbaa !10
  %87 = call i32 @BIO_write(ptr noundef %84, ptr noundef %85, i32 noundef %86)
  %88 = load i8, ptr %9, align 1, !tbaa !17
  %89 = icmp ne i8 %88, 0
  br i1 %89, label %90, label %93

90:                                               ; preds = %83
  %91 = load ptr, ptr %6, align 8, !tbaa !3
  %92 = call i32 @BIO_write(ptr noundef %91, ptr noundef @.str.6, i32 noundef 2)
  br label %93

93:                                               ; preds = %90, %83
  br label %109

94:                                               ; preds = %60
  %95 = load i32, ptr %7, align 4, !tbaa !10
  %96 = and i32 %95, 524288
  %97 = icmp ne i32 %96, 0
  br i1 %97, label %98, label %101

98:                                               ; preds = %94
  %99 = load i32, ptr %14, align 4, !tbaa !10
  %100 = add nsw i32 %99, 1
  store i32 %100, ptr %14, align 4, !tbaa !10
  br label %108

101:                                              ; preds = %94
  %102 = load i8, ptr %9, align 1, !tbaa !17
  %103 = icmp ne i8 %102, 0
  br i1 %103, label %104, label %107

104:                                              ; preds = %101
  %105 = load ptr, ptr %6, align 8, !tbaa !3
  %106 = call i32 @BIO_write(ptr noundef %105, ptr noundef @.str.6, i32 noundef 2)
  br label %107

107:                                              ; preds = %104, %101
  br label %108

108:                                              ; preds = %107, %98
  br label %109

109:                                              ; preds = %108, %93
  br label %55, !llvm.loop !19

110:                                              ; preds = %55
  call void @llvm.lifetime.end.p0(i64 4, ptr %14) #5
  br label %111

111:                                              ; preds = %110, %46
  %112 = load ptr, ptr %6, align 8, !tbaa !3
  %113 = call i64 @BIO_ctrl(ptr noundef %112, i32 noundef 11, i64 noundef 0, ptr noundef null)
  %114 = trunc i64 %113 to i32
  store i32 %114, ptr %12, align 4, !tbaa !10
  %115 = load ptr, ptr %6, align 8, !tbaa !3
  %116 = call ptr @BIO_pop(ptr noundef %115)
  %117 = load ptr, ptr %8, align 8, !tbaa !3
  %118 = call i32 @BIO_free(ptr noundef %117)
  %119 = load i32, ptr %12, align 4, !tbaa !10
  %120 = icmp sle i32 %119, 0
  br i1 %120, label %121, label %122

121:                                              ; preds = %111
  store i32 0, ptr %4, align 4
  store i32 1, ptr %13, align 4
  br label %123

122:                                              ; preds = %111
  store i32 1, ptr %4, align 4
  store i32 1, ptr %13, align 4
  br label %123

123:                                              ; preds = %122, %121, %27, %21
  call void @llvm.lifetime.end.p0(i64 4, ptr %12) #5
  call void @llvm.lifetime.end.p0(i64 1024, ptr %11) #5
  call void @llvm.lifetime.end.p0(i64 4, ptr %10) #5
  call void @llvm.lifetime.end.p0(i64 1, ptr %9) #5
  call void @llvm.lifetime.end.p0(i64 8, ptr %8) #5
  %124 = load i32, ptr %4, align 4
  ret i32 %124
}