; Function Attrs: nounwind uwtable
define range(i32 0, 2) i32 @SMIME_crlf_copy(ptr noundef %0, ptr noundef %1, i32 noundef %2) local_unnamed_addr #0 {
  %4 = alloca [1024 x i8], align 16
  call void @llvm.lifetime.start.p0(i64 1024, ptr nonnull %4) #6
  %5 = icmp eq ptr %0, null
  %6 = icmp eq ptr %1, null
  %or.cond = or i1 %5, %6
  br i1 %or.cond, label %7, label %8

7:                                                ; preds = %3
  tail call void @ERR_new() #6
  tail call void @ERR_set_debug(ptr noundef nonnull @.str, i32 noundef 523, ptr noundef nonnull @__func__.SMIME_crlf_copy) #6
  tail call void (i32, i32, ptr, ...) @ERR_set_error(i32 noundef 13, i32 noundef 786690, ptr noundef null) #6
  br label %77

8:                                                ; preds = %3
  %9 = tail call ptr @BIO_f_buffer() #6
  %10 = tail call ptr @BIO_new(ptr noundef %9) #6
  %11 = icmp eq ptr %10, null
  br i1 %11, label %12, label %13

12:                                               ; preds = %8
  tail call void @ERR_new() #6
  tail call void @ERR_set_debug(ptr noundef nonnull @.str, i32 noundef 533, ptr noundef nonnull @__func__.SMIME_crlf_copy) #6
  tail call void (i32, i32, ptr, ...) @ERR_set_error(i32 noundef 13, i32 noundef 524320, ptr noundef null) #6
  br label %77

13:                                               ; preds = %8
  %14 = tail call ptr @BIO_push(ptr noundef nonnull %10, ptr noundef nonnull %1) #6
  %15 = and i32 %2, 128
  %.not = icmp eq i32 %15, 0
  br i1 %.not, label %22, label %.preheader48

.preheader48:                                     ; preds = %13
  %16 = call i32 @BIO_read(ptr noundef nonnull %0, ptr noundef nonnull %4, i32 noundef 1024) #6
  %17 = icmp sgt i32 %16, 0
  br i1 %17, label %.lr.ph, label %.loopexit47

.lr.ph:                                           ; preds = %.preheader48, %.lr.ph
  %18 = phi i32 [ %20, %.lr.ph ], [ %16, %.preheader48 ]
  %19 = call i32 @BIO_write(ptr noundef %14, ptr noundef nonnull %4, i32 noundef %18) #6
  %20 = call i32 @BIO_read(ptr noundef nonnull %0, ptr noundef nonnull %4, i32 noundef 1024) #6
  %21 = icmp sgt i32 %20, 0
  br i1 %21, label %.lr.ph, label %.loopexit47, !llvm.loop !5

22:                                               ; preds = %13
  %23 = and i32 %2, 1
  %.not35 = icmp eq i32 %23, 0
  br i1 %.not35, label %26, label %24

24:                                               ; preds = %22
  %25 = tail call i32 (ptr, ptr, ...) @BIO_printf(ptr noundef %14, ptr noundef nonnull @.str.43) #6
  br label %26

26:                                               ; preds = %24, %22
  %27 = call i32 @BIO_gets(ptr noundef nonnull %0, ptr noundef nonnull %4, i32 noundef 1024) #6
  %28 = icmp sgt i32 %27, 0
  br i1 %28, label %.lr.ph.i.lr.ph, label %.loopexit47

.lr.ph.i.lr.ph:                                   ; preds = %26
  %29 = and i32 %2, 524288
  %30 = icmp eq i32 %29, 0
  br i1 %30, label %.lr.ph.i.us, label %.lr.ph.i

.lr.ph.i.us:                                      ; preds = %.lr.ph.i.lr.ph, %strip_eol.exit.us.thread
  %31 = phi i32 [ %48, %strip_eol.exit.us.thread ], [ %27, %.lr.ph.i.lr.ph ]
  %32 = zext nneg i32 %31 to i64
  %33 = getelementptr inbounds nuw i8, ptr %4, i64 %32
  br label %34

34:                                               ; preds = %.backedge, %.lr.ph.i.us
  %.pn.i.us = phi ptr [ %33, %.lr.ph.i.us ], [ %.03449.i.us, %.backedge ]
  %.048.i.us = phi i32 [ 0, %.lr.ph.i.us ], [ %.048.i.us.be, %.backedge ]
  %.13647.i.us = phi i32 [ %31, %.lr.ph.i.us ], [ %.13647.i.us.be, %.backedge ]
  %.03449.i.us = getelementptr inbounds i8, ptr %.pn.i.us, i64 -1
  %35 = load i8, ptr %.03449.i.us, align 1, !tbaa !6
  %36 = icmp eq i8 %35, 10
  br i1 %36, label %44, label %37

37:                                               ; preds = %34
  %.not39.i.us = icmp eq i32 %.048.i.us, 0
  %.old4.not.i.us = icmp eq i8 %35, 13
  br i1 %.not39.i.us, label %39, label %38

38:                                               ; preds = %37
  br i1 %.old4.not.i.us, label %44, label %41

39:                                               ; preds = %37
  br i1 %.old4.not.i.us, label %.thread78, label %.thread

.thread:                                          ; preds = %39
  %40 = call i32 @BIO_write(ptr noundef %14, ptr noundef nonnull %4, i32 noundef %.13647.i.us) #6
  br label %strip_eol.exit.us.thread

41:                                               ; preds = %38
  %42 = call i32 @BIO_write(ptr noundef %14, ptr noundef nonnull %4, i32 noundef %.13647.i.us) #6
  %43 = call i32 @BIO_write(ptr noundef %14, ptr noundef nonnull @.str.6, i32 noundef 2) #6
  br label %strip_eol.exit.us.thread

44:                                               ; preds = %38, %34
  %45 = icmp sgt i32 %.13647.i.us, 1
  br i1 %45, label %.backedge, label %strip_eol.exit.us

.backedge:                                        ; preds = %44, %.thread78
  %.048.i.us.be = phi i32 [ 1, %44 ], [ 0, %.thread78 ]
  %.13647.i.us.be = add nsw i32 %.13647.i.us, -1
  br label %34, !llvm.loop !9

.thread78:                                        ; preds = %39
  %46 = icmp samesign ugt i32 %.13647.i.us, 1
  br i1 %46, label %.backedge, label %strip_eol.exit.us.thread

strip_eol.exit.us:                                ; preds = %44
  %47 = call i32 @BIO_write(ptr noundef %14, ptr noundef nonnull @.str.6, i32 noundef 2) #6
  br label %strip_eol.exit.us.thread

strip_eol.exit.us.thread:                         ; preds = %.thread78, %.thread, %strip_eol.exit.us, %41
  %48 = call i32 @BIO_gets(ptr noundef nonnull %0, ptr noundef nonnull %4, i32 noundef 1024) #6
  %49 = icmp sgt i32 %48, 0
  br i1 %49, label %.lr.ph.i.us, label %.loopexit47, !llvm.loop !10

.lr.ph.i:                                         ; preds = %.lr.ph.i.lr.ph, %69
  %50 = phi i32 [ %70, %69 ], [ %27, %.lr.ph.i.lr.ph ]
  %.02953 = phi i32 [ %.2, %69 ], [ 0, %.lr.ph.i.lr.ph ]
  %51 = zext nneg i32 %50 to i64
  %52 = getelementptr inbounds nuw i8, ptr %4, i64 %51
  br label %53

53:                                               ; preds = %59, %.lr.ph.i
  %.pn.i = phi ptr [ %52, %.lr.ph.i ], [ %.03449.i, %59 ]
  %.048.i = phi i32 [ 0, %.lr.ph.i ], [ %.1.i, %59 ]
  %.13647.i = phi i32 [ %50, %.lr.ph.i ], [ %60, %59 ]
  %.03449.i = getelementptr inbounds i8, ptr %.pn.i, i64 -1
  %54 = load i8, ptr %.03449.i, align 1, !tbaa !6
  %55 = icmp eq i8 %54, 10
  br i1 %55, label %59, label %56

56:                                               ; preds = %53
  %.not39.i = icmp eq i32 %.048.i, 0
  br i1 %.not39.i, label %58, label %57

57:                                               ; preds = %56
  switch i8 %54, label %.preheader [
    i8 32, label %59
    i8 13, label %59
  ]

58:                                               ; preds = %56
  %.old4.not.i = icmp eq i8 %54, 13
  br i1 %.old4.not.i, label %59, label %.preheader

59:                                               ; preds = %57, %57, %58, %53
  %.1.i = phi i32 [ 1, %57 ], [ 0, %58 ], [ 1, %53 ], [ 1, %57 ]
  %60 = add nsw i32 %.13647.i, -1
  %61 = icmp sgt i32 %.13647.i, 1
  br i1 %61, label %53, label %strip_eol.exit, !llvm.loop !9

.preheader:                                       ; preds = %57, %58
  %62 = icmp sgt i32 %.02953, 0
  br i1 %62, label %.lr.ph52, label %.loopexit

.lr.ph52:                                         ; preds = %.preheader, %.lr.ph52
  %.051 = phi i32 [ %64, %.lr.ph52 ], [ 0, %.preheader ]
  %63 = call i32 @BIO_write(ptr noundef %14, ptr noundef nonnull @.str.6, i32 noundef 2) #6
  %64 = add nuw nsw i32 %.051, 1
  %exitcond.not = icmp eq i32 %64, %.02953
  br i1 %exitcond.not, label %.loopexit, label %.lr.ph52, !llvm.loop !11

.loopexit:                                        ; preds = %.lr.ph52, %.preheader
  %65 = call i32 @BIO_write(ptr noundef %14, ptr noundef nonnull %4, i32 noundef %.13647.i) #6
  br i1 %.not39.i, label %69, label %66

66:                                               ; preds = %.loopexit
  %67 = call i32 @BIO_write(ptr noundef %14, ptr noundef nonnull @.str.6, i32 noundef 2) #6
  br label %69

strip_eol.exit:                                   ; preds = %59
  %68 = add nsw i32 %.02953, 1
  br label %69

69:                                               ; preds = %strip_eol.exit, %.loopexit, %66
  %.2 = phi i32 [ 0, %66 ], [ 0, %.loopexit ], [ %68, %strip_eol.exit ]
  %70 = call i32 @BIO_gets(ptr noundef nonnull %0, ptr noundef nonnull %4, i32 noundef 1024) #6
  %71 = icmp sgt i32 %70, 0
  br i1 %71, label %.lr.ph.i, label %.loopexit47, !llvm.loop !10

.loopexit47:                                      ; preds = %.lr.ph, %69, %strip_eol.exit.us.thread, %.preheader48, %26
  %72 = call i64 @BIO_ctrl(ptr noundef %14, i32 noundef 11, i64 noundef 0, ptr noundef null) #6
  %73 = trunc i64 %72 to i32
  %74 = call ptr @BIO_pop(ptr noundef %14) #6
  %75 = call i32 @BIO_free(ptr noundef nonnull %10) #6
  %76 = icmp sgt i32 %73, 0
  %. = zext i1 %76 to i32
  br label %77

77:                                               ; preds = %.loopexit47, %12, %7
  %.030 = phi i32 [ 0, %7 ], [ 0, %12 ], [ %., %.loopexit47 ]
  call void @llvm.lifetime.end.p0(i64 1024, ptr nonnull %4) #6
  ret i32 %.030
}